ARM GAS  /tmp/cccAcnTW.s 			page 1


   1              		.cpu cortex-m4
   2              		.arch armv7e-m
   3              		.fpu fpv4-sp-d16
   4              		.eabi_attribute 27, 1
   5              		.eabi_attribute 28, 1
   6              		.eabi_attribute 20, 1
   7              		.eabi_attribute 21, 1
   8              		.eabi_attribute 23, 3
   9              		.eabi_attribute 24, 1
  10              		.eabi_attribute 25, 1
  11              		.eabi_attribute 26, 1
  12              		.eabi_attribute 30, 1
  13              		.eabi_attribute 34, 1
  14              		.eabi_attribute 18, 4
  15              		.file	"pwm.c"
  16              		.text
  17              	.Ltext0:
  18              		.cfi_sections	.debug_frame
  19              		.file 1 "Core/Src/pwm.c"
  20              		.section	.text.PWM_INIT,"ax",%progbits
  21              		.align	1
  22              		.global	PWM_INIT
  23              		.syntax unified
  24              		.thumb
  25              		.thumb_func
  27              	PWM_INIT:
  28              	.LVL0:
  29              	.LFB134:
   1:Core/Src/pwm.c **** #include "pwm.h"
   2:Core/Src/pwm.c **** 
   3:Core/Src/pwm.c **** void PWM_INIT(TIM_TypeDef* timer, uint8_t channel, uint16_t freq) {
  30              		.loc 1 3 67 view -0
  31              		.cfi_startproc
  32              		@ args = 0, pretend = 0, frame = 0
  33              		@ frame_needed = 0, uses_anonymous_args = 0
  34              		@ link register save eliminated.
   4:Core/Src/pwm.c **** 	timer->ARR = 16000000UL / freq - 1;
  35              		.loc 1 4 2 view .LVU1
  36              		.loc 1 4 26 is_stmt 0 view .LVU2
  37 0000 264B     		ldr	r3, .L10
  38 0002 B3FBF2F3 		udiv	r3, r3, r2
  39              		.loc 1 4 33 view .LVU3
  40 0006 013B     		subs	r3, r3, #1
  41              		.loc 1 4 13 view .LVU4
  42 0008 C362     		str	r3, [r0, #44]
   5:Core/Src/pwm.c **** 	switch (channel) {
  43              		.loc 1 5 2 is_stmt 1 view .LVU5
  44 000a 0139     		subs	r1, r1, #1
  45              	.LVL1:
  46              		.loc 1 5 2 is_stmt 0 view .LVU6
  47 000c 0329     		cmp	r1, #3
  48 000e 43D8     		bhi	.L9
  49 0010 DFE801F0 		tbb	[pc, r1]
  50              	.L4:
  51 0014 02       		.byte	(.L7-.L4)/2
  52 0015 15       		.byte	(.L6-.L4)/2
  53 0016 24       		.byte	(.L5-.L4)/2
ARM GAS  /tmp/cccAcnTW.s 			page 2


  54 0017 33       		.byte	(.L3-.L4)/2
  55              		.p2align 1
  56              	.L7:
   6:Core/Src/pwm.c **** 		case 1:
   7:Core/Src/pwm.c **** 			timer->CCMR1 &= ~(TIM_CCMR1_OC1M);
  57              		.loc 1 7 4 is_stmt 1 view .LVU7
  58              		.loc 1 7 9 is_stmt 0 view .LVU8
  59 0018 8369     		ldr	r3, [r0, #24]
  60              		.loc 1 7 17 view .LVU9
  61 001a 23F07003 		bic	r3, r3, #112
  62 001e 8361     		str	r3, [r0, #24]
   8:Core/Src/pwm.c **** 			timer->CCMR1 |= (PWM_MODE1 << TIM_CCMR1_OC1M_Pos);
  63              		.loc 1 8 4 is_stmt 1 view .LVU10
  64              		.loc 1 8 9 is_stmt 0 view .LVU11
  65 0020 8369     		ldr	r3, [r0, #24]
  66              		.loc 1 8 17 view .LVU12
  67 0022 43F06003 		orr	r3, r3, #96
  68 0026 8361     		str	r3, [r0, #24]
   9:Core/Src/pwm.c **** 			timer->CCER |= TIM_CCER_CC1E;
  69              		.loc 1 9 4 is_stmt 1 view .LVU13
  70              		.loc 1 9 9 is_stmt 0 view .LVU14
  71 0028 036A     		ldr	r3, [r0, #32]
  72              		.loc 1 9 16 view .LVU15
  73 002a 43F00103 		orr	r3, r3, #1
  74 002e 0362     		str	r3, [r0, #32]
  10:Core/Src/pwm.c **** 			timer->CCR1 = 0;
  75              		.loc 1 10 4 is_stmt 1 view .LVU16
  76              		.loc 1 10 16 is_stmt 0 view .LVU17
  77 0030 0023     		movs	r3, #0
  78 0032 4363     		str	r3, [r0, #52]
  11:Core/Src/pwm.c **** 			break;
  79              		.loc 1 11 4 is_stmt 1 view .LVU18
  80              	.L8:
  12:Core/Src/pwm.c **** 		case 2:
  13:Core/Src/pwm.c **** 			timer->CCMR1 &= ~(TIM_CCMR1_OC2M);
  14:Core/Src/pwm.c **** 			timer->CCMR1 |= (PWM_MODE1 << TIM_CCMR1_OC2M_Pos);
  15:Core/Src/pwm.c **** 			timer->CCER |= TIM_CCER_CC2E;
  16:Core/Src/pwm.c **** 			timer->CCR2 = 0;
  17:Core/Src/pwm.c **** 			break;
  18:Core/Src/pwm.c **** 		case 3:
  19:Core/Src/pwm.c **** 			timer->CCMR2 &= ~(TIM_CCMR2_OC3M);
  20:Core/Src/pwm.c **** 			timer->CCMR2 |= (PWM_MODE1 << TIM_CCMR2_OC3M_Pos);
  21:Core/Src/pwm.c **** 			timer->CCER |= TIM_CCER_CC3E;
  22:Core/Src/pwm.c **** 			timer->CCR3 = 0;
  23:Core/Src/pwm.c **** 			break;
  24:Core/Src/pwm.c **** 		case 4:
  25:Core/Src/pwm.c **** 			timer->CCMR2 &= ~(TIM_CCMR2_OC4M);
  26:Core/Src/pwm.c **** 			timer->CCMR2 |= (PWM_MODE1 << TIM_CCMR2_OC4M_Pos);
  27:Core/Src/pwm.c **** 			timer->CCER |= TIM_CCER_CC4E;
  28:Core/Src/pwm.c **** 			timer->CCR4 = 0;
  29:Core/Src/pwm.c **** 			break;
  30:Core/Src/pwm.c **** 		default:
  31:Core/Src/pwm.c **** 			while(1);
  32:Core/Src/pwm.c **** 	}
  33:Core/Src/pwm.c **** 	timer->CR1 |= TIM_CR1_CEN | TIM_CR1_ARPE;
  81              		.loc 1 33 2 view .LVU19
  82              		.loc 1 33 7 is_stmt 0 view .LVU20
ARM GAS  /tmp/cccAcnTW.s 			page 3


  83 0034 0368     		ldr	r3, [r0]
  84              		.loc 1 33 13 view .LVU21
  85 0036 43F08103 		orr	r3, r3, #129
  86 003a 0360     		str	r3, [r0]
  34:Core/Src/pwm.c **** }
  87              		.loc 1 34 1 view .LVU22
  88 003c 7047     		bx	lr
  89              	.L6:
  13:Core/Src/pwm.c **** 			timer->CCMR1 |= (PWM_MODE1 << TIM_CCMR1_OC2M_Pos);
  90              		.loc 1 13 4 is_stmt 1 view .LVU23
  13:Core/Src/pwm.c **** 			timer->CCMR1 |= (PWM_MODE1 << TIM_CCMR1_OC2M_Pos);
  91              		.loc 1 13 9 is_stmt 0 view .LVU24
  92 003e 8369     		ldr	r3, [r0, #24]
  13:Core/Src/pwm.c **** 			timer->CCMR1 |= (PWM_MODE1 << TIM_CCMR1_OC2M_Pos);
  93              		.loc 1 13 17 view .LVU25
  94 0040 23F4E043 		bic	r3, r3, #28672
  95 0044 8361     		str	r3, [r0, #24]
  14:Core/Src/pwm.c **** 			timer->CCER |= TIM_CCER_CC2E;
  96              		.loc 1 14 4 is_stmt 1 view .LVU26
  14:Core/Src/pwm.c **** 			timer->CCER |= TIM_CCER_CC2E;
  97              		.loc 1 14 9 is_stmt 0 view .LVU27
  98 0046 8369     		ldr	r3, [r0, #24]
  14:Core/Src/pwm.c **** 			timer->CCER |= TIM_CCER_CC2E;
  99              		.loc 1 14 17 view .LVU28
 100 0048 43F4C043 		orr	r3, r3, #24576
 101 004c 8361     		str	r3, [r0, #24]
  15:Core/Src/pwm.c **** 			timer->CCR2 = 0;
 102              		.loc 1 15 4 is_stmt 1 view .LVU29
  15:Core/Src/pwm.c **** 			timer->CCR2 = 0;
 103              		.loc 1 15 9 is_stmt 0 view .LVU30
 104 004e 036A     		ldr	r3, [r0, #32]
  15:Core/Src/pwm.c **** 			timer->CCR2 = 0;
 105              		.loc 1 15 16 view .LVU31
 106 0050 43F01003 		orr	r3, r3, #16
 107 0054 0362     		str	r3, [r0, #32]
  16:Core/Src/pwm.c **** 			break;
 108              		.loc 1 16 4 is_stmt 1 view .LVU32
  16:Core/Src/pwm.c **** 			break;
 109              		.loc 1 16 16 is_stmt 0 view .LVU33
 110 0056 0023     		movs	r3, #0
 111 0058 8363     		str	r3, [r0, #56]
  17:Core/Src/pwm.c **** 		case 3:
 112              		.loc 1 17 4 is_stmt 1 view .LVU34
 113 005a EBE7     		b	.L8
 114              	.L5:
  19:Core/Src/pwm.c **** 			timer->CCMR2 |= (PWM_MODE1 << TIM_CCMR2_OC3M_Pos);
 115              		.loc 1 19 4 view .LVU35
  19:Core/Src/pwm.c **** 			timer->CCMR2 |= (PWM_MODE1 << TIM_CCMR2_OC3M_Pos);
 116              		.loc 1 19 9 is_stmt 0 view .LVU36
 117 005c C369     		ldr	r3, [r0, #28]
  19:Core/Src/pwm.c **** 			timer->CCMR2 |= (PWM_MODE1 << TIM_CCMR2_OC3M_Pos);
 118              		.loc 1 19 17 view .LVU37
 119 005e 23F07003 		bic	r3, r3, #112
 120 0062 C361     		str	r3, [r0, #28]
  20:Core/Src/pwm.c **** 			timer->CCER |= TIM_CCER_CC3E;
 121              		.loc 1 20 4 is_stmt 1 view .LVU38
  20:Core/Src/pwm.c **** 			timer->CCER |= TIM_CCER_CC3E;
ARM GAS  /tmp/cccAcnTW.s 			page 4


 122              		.loc 1 20 9 is_stmt 0 view .LVU39
 123 0064 C369     		ldr	r3, [r0, #28]
  20:Core/Src/pwm.c **** 			timer->CCER |= TIM_CCER_CC3E;
 124              		.loc 1 20 17 view .LVU40
 125 0066 43F06003 		orr	r3, r3, #96
 126 006a C361     		str	r3, [r0, #28]
  21:Core/Src/pwm.c **** 			timer->CCR3 = 0;
 127              		.loc 1 21 4 is_stmt 1 view .LVU41
  21:Core/Src/pwm.c **** 			timer->CCR3 = 0;
 128              		.loc 1 21 9 is_stmt 0 view .LVU42
 129 006c 036A     		ldr	r3, [r0, #32]
  21:Core/Src/pwm.c **** 			timer->CCR3 = 0;
 130              		.loc 1 21 16 view .LVU43
 131 006e 43F48073 		orr	r3, r3, #256
 132 0072 0362     		str	r3, [r0, #32]
  22:Core/Src/pwm.c **** 			break;
 133              		.loc 1 22 4 is_stmt 1 view .LVU44
  22:Core/Src/pwm.c **** 			break;
 134              		.loc 1 22 16 is_stmt 0 view .LVU45
 135 0074 0023     		movs	r3, #0
 136 0076 C363     		str	r3, [r0, #60]
  23:Core/Src/pwm.c **** 		case 4:
 137              		.loc 1 23 4 is_stmt 1 view .LVU46
 138 0078 DCE7     		b	.L8
 139              	.L3:
  25:Core/Src/pwm.c **** 			timer->CCMR2 |= (PWM_MODE1 << TIM_CCMR2_OC4M_Pos);
 140              		.loc 1 25 4 view .LVU47
  25:Core/Src/pwm.c **** 			timer->CCMR2 |= (PWM_MODE1 << TIM_CCMR2_OC4M_Pos);
 141              		.loc 1 25 9 is_stmt 0 view .LVU48
 142 007a C369     		ldr	r3, [r0, #28]
  25:Core/Src/pwm.c **** 			timer->CCMR2 |= (PWM_MODE1 << TIM_CCMR2_OC4M_Pos);
 143              		.loc 1 25 17 view .LVU49
 144 007c 23F4E043 		bic	r3, r3, #28672
 145 0080 C361     		str	r3, [r0, #28]
  26:Core/Src/pwm.c **** 			timer->CCER |= TIM_CCER_CC4E;
 146              		.loc 1 26 4 is_stmt 1 view .LVU50
  26:Core/Src/pwm.c **** 			timer->CCER |= TIM_CCER_CC4E;
 147              		.loc 1 26 9 is_stmt 0 view .LVU51
 148 0082 C369     		ldr	r3, [r0, #28]
  26:Core/Src/pwm.c **** 			timer->CCER |= TIM_CCER_CC4E;
 149              		.loc 1 26 17 view .LVU52
 150 0084 43F4C043 		orr	r3, r3, #24576
 151 0088 C361     		str	r3, [r0, #28]
  27:Core/Src/pwm.c **** 			timer->CCR4 = 0;
 152              		.loc 1 27 4 is_stmt 1 view .LVU53
  27:Core/Src/pwm.c **** 			timer->CCR4 = 0;
 153              		.loc 1 27 9 is_stmt 0 view .LVU54
 154 008a 036A     		ldr	r3, [r0, #32]
  27:Core/Src/pwm.c **** 			timer->CCR4 = 0;
 155              		.loc 1 27 16 view .LVU55
 156 008c 43F48053 		orr	r3, r3, #4096
 157 0090 0362     		str	r3, [r0, #32]
  28:Core/Src/pwm.c **** 			break;
 158              		.loc 1 28 4 is_stmt 1 view .LVU56
  28:Core/Src/pwm.c **** 			break;
 159              		.loc 1 28 16 is_stmt 0 view .LVU57
 160 0092 0023     		movs	r3, #0
ARM GAS  /tmp/cccAcnTW.s 			page 5


 161 0094 0364     		str	r3, [r0, #64]
  29:Core/Src/pwm.c **** 		default:
 162              		.loc 1 29 4 is_stmt 1 view .LVU58
 163 0096 CDE7     		b	.L8
 164              	.L9:
 165              	.L2:
  31:Core/Src/pwm.c **** 	}
 166              		.loc 1 31 4 view .LVU59
  31:Core/Src/pwm.c **** 	}
 167              		.loc 1 31 9 view .LVU60
 168 0098 FEE7     		b	.L2
 169              	.L11:
 170 009a 00BF     		.align	2
 171              	.L10:
 172 009c 0024F400 		.word	16000000
 173              		.cfi_endproc
 174              	.LFE134:
 176              		.section	.text.PWM_SetDutyCycle,"ax",%progbits
 177              		.align	1
 178              		.global	PWM_SetDutyCycle
 179              		.syntax unified
 180              		.thumb
 181              		.thumb_func
 183              	PWM_SetDutyCycle:
 184              	.LVL2:
 185              	.LFB135:
  35:Core/Src/pwm.c **** 
  36:Core/Src/pwm.c **** void PWM_SetDutyCycle(TIM_TypeDef* timer, uint8_t channel, uint8_t duty) {
 186              		.loc 1 36 74 view -0
 187              		.cfi_startproc
 188              		@ args = 0, pretend = 0, frame = 0
 189              		@ frame_needed = 0, uses_anonymous_args = 0
 190              		@ link register save eliminated.
  37:Core/Src/pwm.c **** 	switch (channel) {
 191              		.loc 1 37 2 view .LVU62
 192 0000 0139     		subs	r1, r1, #1
 193              	.LVL3:
 194              		.loc 1 37 2 is_stmt 0 view .LVU63
 195 0002 0329     		cmp	r1, #3
 196 0004 27D8     		bhi	.L20
 197 0006 DFE801F0 		tbb	[pc, r1]
 198              	.L15:
 199 000a 02       		.byte	(.L18-.L15)/2
 200 000b 0B       		.byte	(.L17-.L15)/2
 201 000c 14       		.byte	(.L16-.L15)/2
 202 000d 1D       		.byte	(.L14-.L15)/2
 203              		.p2align 1
 204              	.L18:
  38:Core/Src/pwm.c **** 		case 1:
  39:Core/Src/pwm.c **** 			timer->CCR1 = (timer->ARR * duty) / 100;
 205              		.loc 1 39 4 is_stmt 1 view .LVU64
 206              		.loc 1 39 24 is_stmt 0 view .LVU65
 207 000e C36A     		ldr	r3, [r0, #44]
 208              		.loc 1 39 30 view .LVU66
 209 0010 02FB03F3 		mul	r3, r2, r3
 210              		.loc 1 39 38 view .LVU67
 211 0014 104A     		ldr	r2, .L21
ARM GAS  /tmp/cccAcnTW.s 			page 6


 212              	.LVL4:
 213              		.loc 1 39 38 view .LVU68
 214 0016 A2FB0323 		umull	r2, r3, r2, r3
 215 001a 5B09     		lsrs	r3, r3, #5
 216              		.loc 1 39 16 view .LVU69
 217 001c 4363     		str	r3, [r0, #52]
  40:Core/Src/pwm.c **** 			break;
 218              		.loc 1 40 4 is_stmt 1 view .LVU70
 219 001e 7047     		bx	lr
 220              	.LVL5:
 221              	.L17:
  41:Core/Src/pwm.c **** 		case 2:
  42:Core/Src/pwm.c **** 			timer->CCR2 = (timer->ARR * duty) / 100;
 222              		.loc 1 42 4 view .LVU71
 223              		.loc 1 42 24 is_stmt 0 view .LVU72
 224 0020 C36A     		ldr	r3, [r0, #44]
 225              		.loc 1 42 30 view .LVU73
 226 0022 02FB03F3 		mul	r3, r2, r3
 227              		.loc 1 42 38 view .LVU74
 228 0026 0C4A     		ldr	r2, .L21
 229              	.LVL6:
 230              		.loc 1 42 38 view .LVU75
 231 0028 A2FB0323 		umull	r2, r3, r2, r3
 232 002c 5B09     		lsrs	r3, r3, #5
 233              		.loc 1 42 16 view .LVU76
 234 002e 8363     		str	r3, [r0, #56]
  43:Core/Src/pwm.c **** 			break;
 235              		.loc 1 43 4 is_stmt 1 view .LVU77
 236 0030 7047     		bx	lr
 237              	.LVL7:
 238              	.L16:
  44:Core/Src/pwm.c **** 		case 3:
  45:Core/Src/pwm.c **** 			timer->CCR3 = (timer->ARR * duty) / 100;
 239              		.loc 1 45 4 view .LVU78
 240              		.loc 1 45 24 is_stmt 0 view .LVU79
 241 0032 C36A     		ldr	r3, [r0, #44]
 242              		.loc 1 45 30 view .LVU80
 243 0034 02FB03F3 		mul	r3, r2, r3
 244              		.loc 1 45 38 view .LVU81
 245 0038 074A     		ldr	r2, .L21
 246              	.LVL8:
 247              		.loc 1 45 38 view .LVU82
 248 003a A2FB0323 		umull	r2, r3, r2, r3
 249 003e 5B09     		lsrs	r3, r3, #5
 250              		.loc 1 45 16 view .LVU83
 251 0040 C363     		str	r3, [r0, #60]
  46:Core/Src/pwm.c **** 			break;
 252              		.loc 1 46 4 is_stmt 1 view .LVU84
 253 0042 7047     		bx	lr
 254              	.LVL9:
 255              	.L14:
  47:Core/Src/pwm.c **** 		case 4:
  48:Core/Src/pwm.c **** 			timer->CCR4 = (timer->ARR * duty) / 100;
 256              		.loc 1 48 4 view .LVU85
 257              		.loc 1 48 24 is_stmt 0 view .LVU86
 258 0044 C36A     		ldr	r3, [r0, #44]
 259              		.loc 1 48 30 view .LVU87
ARM GAS  /tmp/cccAcnTW.s 			page 7


 260 0046 02FB03F3 		mul	r3, r2, r3
 261              		.loc 1 48 38 view .LVU88
 262 004a 034A     		ldr	r2, .L21
 263              	.LVL10:
 264              		.loc 1 48 38 view .LVU89
 265 004c A2FB0323 		umull	r2, r3, r2, r3
 266 0050 5B09     		lsrs	r3, r3, #5
 267              		.loc 1 48 16 view .LVU90
 268 0052 0364     		str	r3, [r0, #64]
  49:Core/Src/pwm.c **** 			break;
 269              		.loc 1 49 4 is_stmt 1 view .LVU91
  50:Core/Src/pwm.c **** 		default:
  51:Core/Src/pwm.c **** 			while(1);
  52:Core/Src/pwm.c **** 	}
  53:Core/Src/pwm.c **** }
 270              		.loc 1 53 1 is_stmt 0 view .LVU92
 271 0054 7047     		bx	lr
 272              	.LVL11:
 273              	.L20:
 274              	.L13:
  51:Core/Src/pwm.c **** 	}
 275              		.loc 1 51 4 is_stmt 1 view .LVU93
  51:Core/Src/pwm.c **** 	}
 276              		.loc 1 51 9 view .LVU94
 277 0056 FEE7     		b	.L13
 278              	.L22:
 279              		.align	2
 280              	.L21:
 281 0058 1F85EB51 		.word	1374389535
 282              		.cfi_endproc
 283              	.LFE135:
 285              		.text
 286              	.Letext0:
 287              		.file 2 "/home/jacob/arm-gnu-toolchain-13.2.Rel1-x86_64-arm-none-eabi/arm-none-eabi/include/machin
 288              		.file 3 "/home/jacob/arm-gnu-toolchain-13.2.Rel1-x86_64-arm-none-eabi/arm-none-eabi/include/sys/_s
 289              		.file 4 "Drivers/CMSIS/Device/ST/STM32F4xx/Include/stm32f446xx.h"
ARM GAS  /tmp/cccAcnTW.s 			page 8


DEFINED SYMBOLS
                            *ABS*:00000000 pwm.c
     /tmp/cccAcnTW.s:21     .text.PWM_INIT:00000000 $t
     /tmp/cccAcnTW.s:27     .text.PWM_INIT:00000000 PWM_INIT
     /tmp/cccAcnTW.s:51     .text.PWM_INIT:00000014 $d
     /tmp/cccAcnTW.s:55     .text.PWM_INIT:00000018 $t
     /tmp/cccAcnTW.s:172    .text.PWM_INIT:0000009c $d
     /tmp/cccAcnTW.s:177    .text.PWM_SetDutyCycle:00000000 $t
     /tmp/cccAcnTW.s:183    .text.PWM_SetDutyCycle:00000000 PWM_SetDutyCycle
     /tmp/cccAcnTW.s:199    .text.PWM_SetDutyCycle:0000000a $d
     /tmp/cccAcnTW.s:203    .text.PWM_SetDutyCycle:0000000e $t
     /tmp/cccAcnTW.s:281    .text.PWM_SetDutyCycle:00000058 $d

NO UNDEFINED SYMBOLS
